
build/main.elf:     file format elf32-littleriscv

Contents of section .text:
 1000 00002040 130101fe 232e8100 13040102  .. @....#.......
 1010 93074000 2326f4fe b7170000 87a70700  ..@.#&..........
 1020 2724f4fe 872784fe 538507e0 0324c101  '$...'..S....$..
 1030 13010102 67800000 00000000 00000000  ....g...........
 1040 13000000 6f00800b 13000000 13000000  ....o...........
 1050 13000000 13000000 13000000 13000000  ................
 1060 13000000 13000000 13000000 13000000  ................
 1070 13000000 13000000 13000000 13000000  ................
 1080 6f00800b 00000000 00000000 6f00800a  o...........o...
 1090 00000000 00000000 00000000 6f008009  ............o...
 10a0 00000000 00000000 00000000 6f008008  ............o...
 10b0 00000000 00000000 00000000 00000000  ................
 10c0 6f004007 00000000 00000000 00000000  o.@.............
 10d0 00000000 00000000 00000000 00000000  ................
 10e0 00000000 00000000 00000000 00000000  ................
 10f0 00000000 00000000 00000000 93028000  ................
 1100 73a00230 b7120000 93820280 73a04230  s..0........s.B0
 1110 17f1ff7f 1301012f 17050000 130585f6  ......./........
 1120 13051500 73105530 13050000 93050000  ....s.U0........
 1130 eff05fed 6f000000 6f000000           .._.o...o...    
Contents of section .comment:
 0000 4743433a 20283133 2e322e30 2d31302b  GCC: (13.2.0-10+
 0010 31322920 31332e32 2e3000             12) 13.2.0.     
Contents of section .riscv.attributes:
 0000 412d0000 00726973 63760001 23000000  A-...riscv..#...
 0010 04100572 76333269 3270315f 66327032  ...rv32i2p1_f2p2
 0020 5f7a6963 73723270 30000801 0a0b      _zicsr2p0.....  

Disassembly of section .text:

00001000 <main-0x4>:
    1000:	0000                	.insn	2, 0x
    1002:	4020                	.insn	2, 0x4020

00001004 <main>:
    1004:	fe010113          	add	sp,sp,-32
    1008:	00812e23          	sw	s0,28(sp)
    100c:	02010413          	add	s0,sp,32
    1010:	00400793          	li	a5,4
    1014:	fef42623          	sw	a5,-20(s0)
    1018:	000017b7          	lui	a5,0x1
    101c:	0007a787          	flw	fa5,0(a5) # 1000 <CSR_MEPC+0xcbf>
    1020:	fef42427          	fsw	fa5,-24(s0)
    1024:	fe842787          	flw	fa5,-24(s0)
    1028:	e0078553          	fmv.x.w	a0,fa5
    102c:	01c12403          	lw	s0,28(sp)
    1030:	02010113          	add	sp,sp,32
    1034:	00008067          	ret
	...
    1040:	00000013          	.word	0x00000013
    1044:	0b80006f          	j	10fc <reset_handler>
    1048:	00000013          	nop
    104c:	00000013          	nop
    1050:	00000013          	nop
    1054:	00000013          	nop
    1058:	00000013          	nop
    105c:	00000013          	nop
    1060:	00000013          	nop
    1064:	00000013          	nop
    1068:	00000013          	nop
    106c:	00000013          	nop
    1070:	00000013          	nop
    1074:	00000013          	nop
    1078:	00000013          	nop
    107c:	00000013          	nop

00001080 <vtable>:
    1080:	0b80006f 00000000 00000000 0a80006f     o...........o...
	...
    109c:	0980006f 00000000 00000000 00000000     o...............
    10ac:	0880006f 00000000 00000000 00000000     o...............
    10bc:	00000000 0740006f 00000000 00000000     ....o.@.........
	...

000010fc <reset_handler>:
    10fc:	00800293          	li	t0,8
    1100:	3002a073          	csrs	mstatus,t0
    1104:	000012b7          	lui	t0,0x1
    1108:	80028293          	add	t0,t0,-2048 # 800 <CSR_MEPC+0x4bf>
    110c:	3042a073          	csrs	mie,t0
    1110:	7ffff117          	auipc	sp,0x7ffff
    1114:	2f010113          	add	sp,sp,752 # 80000400 <_sp>
    1118:	00000517          	auipc	a0,0x0
    111c:	f6850513          	add	a0,a0,-152 # 1080 <vtable>
    1120:	00150513          	add	a0,a0,1
    1124:	30551073          	csrw	mtvec,a0

00001128 <call_main>:
    1128:	00000513          	li	a0,0
    112c:	00000593          	li	a1,0
    1130:	ed5ff0ef          	jal	1004 <main>

00001134 <meip_handler>:
    1134:	0000006f          	j	1134 <meip_handler>

00001138 <mexc_handler>:
    1138:	0000006f          	j	1138 <mexc_handler>
